target datalayout = "e-m:e-p270:32:32-p271:32:32-p272:64:64-i64:64-i128:128-f80:128-n8:16:32:64-S128"
target triple = "x86_64-pc-linux-gnu"

%struct.UriMemoryManagerStruct = type { ptr, ptr, ptr, ptr, ptr, ptr }

; Function Attrs: nounwind uwtable
define internal ptr @uriDecorateMalloc(ptr noundef %0, i64 noundef %1) #0 {
  %3 = alloca ptr, align 8
  %4 = alloca ptr, align 8
  %5 = alloca i64, align 8
  %6 = alloca ptr, align 8
  %7 = alloca i64, align 8
  %8 = alloca ptr, align 8
  %9 = alloca i32, align 4
  store ptr %0, ptr %4, align 8, !tbaa !3
  store i64 %1, ptr %5, align 8, !tbaa !14
  call void @llvm.lifetime.start.p0(i64 8, ptr %6) #9
  call void @llvm.lifetime.start.p0(i64 8, ptr %7) #9
  store i64 8, ptr %7, align 8, !tbaa !14
  call void @llvm.lifetime.start.p0(i64 8, ptr %8) #9
  %10 = load ptr, ptr %4, align 8, !tbaa !3
  %11 = icmp eq ptr %10, null
  br i1 %11, label %12, label %14

12:                                               ; preds = %2
  %13 = call ptr @__errno_location() #10
  store i32 22, ptr %13, align 4, !tbaa !16
  store ptr null, ptr %3, align 8
  store i32 1, ptr %9, align 4
  br label %43

14:                                               ; preds = %2
  %15 = load i64, ptr %5, align 8, !tbaa !14
  %16 = icmp ugt i64 %15, -9
  br i1 %16, label %17, label %19

17:                                               ; preds = %14
  %18 = call ptr @__errno_location() #10
  store i32 12, ptr %18, align 4, !tbaa !16
  store ptr null, ptr %3, align 8
  store i32 1, ptr %9, align 4
  br label %43

19:                                               ; preds = %14
  %20 = load ptr, ptr %4, align 8, !tbaa !3
  %21 = getelementptr inbounds nuw %struct.UriMemoryManagerStruct, ptr %20, i32 0, i32 5
  %22 = load ptr, ptr %21, align 8, !tbaa !19
  store ptr %22, ptr %6, align 8, !tbaa !3
  %23 = load ptr, ptr %6, align 8, !tbaa !3
  %24 = icmp eq ptr %23, null
  br i1 %24, label %25, label %27

25:                                               ; preds = %19
  %26 = call ptr @__errno_location() #10
  store i32 22, ptr %26, align 4, !tbaa !16
  store ptr null, ptr %3, align 8
  store i32 1, ptr %9, align 4
  br label %43

27:                                               ; preds = %19
  %28 = load ptr, ptr %6, align 8, !tbaa !3
  %29 = getelementptr inbounds nuw %struct.UriMemoryManagerStruct, ptr %28, i32 0, i32 0
  %30 = load ptr, ptr %29, align 8, !tbaa !8
  %31 = load ptr, ptr %6, align 8, !tbaa !3
  %32 = load i64, ptr %5, align 8, !tbaa !14
  %33 = add i64 8, %32
  %34 = call ptr %30(ptr noundef %31, i64 noundef %33)
  store ptr %34, ptr %8, align 8, !tbaa !18
  %35 = load ptr, ptr %8, align 8, !tbaa !18
  %36 = icmp eq ptr %35, null
  br i1 %36, label %37, label %38

37:                                               ; preds = %27
  store ptr null, ptr %3, align 8
  store i32 1, ptr %9, align 4
  br label %43

38:                                               ; preds = %27
  %39 = load i64, ptr %5, align 8, !tbaa !14
  %40 = load ptr, ptr %8, align 8, !tbaa !18
  store i64 %39, ptr %40, align 8, !tbaa !14
  %41 = load ptr, ptr %8, align 8, !tbaa !18
  %42 = getelementptr inbounds nuw i8, ptr %41, i64 8
  store ptr %42, ptr %3, align 8
  store i32 1, ptr %9, align 4
  br label %43

43:                                               ; preds = %38, %37, %25, %17, %12
  call void @llvm.lifetime.end.p0(i64 8, ptr %8) #9
  call void @llvm.lifetime.end.p0(i64 8, ptr %7) #9
  call void @llvm.lifetime.end.p0(i64 8, ptr %6) #9
  %44 = load ptr, ptr %3, align 8
  ret ptr %44
}