; Function Attrs: nounwind uwtable
define internal ptr @uriDecorateMalloc(ptr noundef readonly captures(address_is_null) %0, i64 noundef %1) #1 {
  %3 = icmp eq ptr %0, null
  br i1 %3, label %4, label %6

4:                                                ; preds = %2
  %5 = tail call ptr @__errno_location() #14
  store i32 22, ptr %5, align 4, !tbaa !12
  br label %23

6:                                                ; preds = %2
  %7 = icmp ugt i64 %1, -9
  br i1 %7, label %8, label %10

8:                                                ; preds = %6
  %9 = tail call ptr @__errno_location() #14
  store i32 12, ptr %9, align 4, !tbaa !12
  br label %23

10:                                               ; preds = %6
  %11 = getelementptr inbounds nuw i8, ptr %0, i64 40
  %12 = load ptr, ptr %11, align 8, !tbaa !14
  %13 = icmp eq ptr %12, null
  br i1 %13, label %14, label %16

14:                                               ; preds = %10
  %15 = tail call ptr @__errno_location() #14
  store i32 22, ptr %15, align 4, !tbaa !12
  br label %23

16:                                               ; preds = %10
  %17 = load ptr, ptr %12, align 8, !tbaa !3
  %18 = add nuw i64 %1, 8
  %19 = tail call ptr %17(ptr noundef nonnull %12, i64 noundef %18) #15
  %20 = icmp eq ptr %19, null
  br i1 %20, label %23, label %21

21:                                               ; preds = %16
  store i64 %1, ptr %19, align 8, !tbaa !15
  %22 = getelementptr inbounds nuw i8, ptr %19, i64 8
  br label %23

23:                                               ; preds = %16, %21, %14, %8, %4
  %.0 = phi ptr [ null, %4 ], [ null, %8 ], [ null, %14 ], [ %22, %21 ], [ null, %16 ]
  ret ptr %.0
}